target datalayout = "e-m:e-p270:32:32-p271:32:32-p272:64:64-i64:64-i128:128-f80:128-n8:16:32:64-S128"
target triple = "x86_64-pc-linux-gnu"

%union.pthread_cond_t = type { %struct.__pthread_cond_s }
%struct.__pthread_cond_s = type { %union.__atomic_wide_counter, %union.__atomic_wide_counter, [2 x i32], [2 x i32], i32, i32, [2 x i32] }
%union.__atomic_wide_counter = type { i64 }
%union.pthread_mutex_t = type { %struct.__pthread_mutex_s }
%struct.__pthread_mutex_s = type { i32, i32, i32, i32, i32, i16, i16, %struct.__pthread_internal_list }
%struct.__pthread_internal_list = type { ptr, ptr }
%struct.slurmctld_config = type { ptr, %union.pthread_cond_t, %union.pthread_mutex_t, %union.pthread_cond_t, %union.pthread_mutex_t, i64, [64 x i8], [64 x i8], i8, i8, i32, i64, i8, %union.pthread_cond_t, %union.pthread_mutex_t, i64, i64, i64, i64 }

@slurmctld_config = dso_local global { ptr, %union.pthread_cond_t, %union.pthread_mutex_t, %union.pthread_cond_t, %union.pthread_mutex_t, i64, [64 x i8], [64 x i8], i8, i8, [2 x i8], i32, i64, i8, [7 x i8], %union.pthread_cond_t, %union.pthread_mutex_t, i64, i64, i64, i64 } zeroinitializer, align 8
@.str.58 = private unnamed_addr constant [36 x i8] c"%s:%d %s: pthread_cond_signal(): %m\00", align 1
@.str.59 = private unnamed_addr constant [13 x i8] c"controller.c\00", align 1
@.str.76 = private unnamed_addr constant [22 x i8] c"slurmctld terminating\00", align 1
@shutdown_cond = internal global %union.pthread_cond_t zeroinitializer, align 8
@__func__.slurmctld_shutdown = private unnamed_addr constant [19 x i8] c"slurmctld_shutdown\00", align 1

; Function Attrs: nounwind uwtable
define dso_local i32 @slurmctld_shutdown() #0 {
  %1 = alloca i32, align 4
  br label %2

2:                                                ; preds = %0
  %3 = call i32 @get_sched_log_level()
  %4 = icmp sge i32 %3, 5
  br i1 %4, label %5, label %6

5:                                                ; preds = %2
  call void (i32, ptr, ...) @sched_log_var(i32 noundef 5, ptr noundef @.str.76)
  br label %6

6:                                                ; preds = %5, %2
  br label %7

7:                                                ; preds = %6
  %8 = call i64 @time(ptr noundef null) #11
  store i64 %8, ptr getelementptr inbounds nuw (%struct.slurmctld_config, ptr @slurmctld_config, i32 0, i32 11), align 8
  br label %9

9:                                                ; preds = %7
  call void @llvm.lifetime.start.p0(i64 4, ptr %1) #11
  %10 = call i32 @pthread_cond_signal(ptr noundef @shutdown_cond) #11
  store i32 %10, ptr %1, align 4
  %11 = load i32, ptr %1, align 4
  %12 = icmp ne i32 %11, 0
  br i1 %12, label %13, label %17

13:                                               ; preds = %9
  %14 = load i32, ptr %1, align 4
  %15 = call ptr @__errno_location() #14
  store i32 %14, ptr %15, align 4
  %16 = call i32 (ptr, ...) @error(ptr noundef @.str.58, ptr noundef @.str.59, i32 noundef 2932, ptr noundef @__func__.slurmctld_shutdown)
  br label %17

17:                                               ; preds = %13, %9
  call void @llvm.lifetime.end.p0(i64 4, ptr %1) #11
  br label %18

18:                                               ; preds = %17
  %19 = call i64 @pthread_self() #14
  %20 = call i32 @pthread_kill(i64 noundef %19, i32 noundef 10) #11
  ret i32 0
}