; Function Attrs: nounwind uwtable
define dso_local noundef i32 @slurmctld_shutdown() local_unnamed_addr #6 {
  %1 = tail call i32 @get_sched_log_level() #19
  %2 = icmp sgt i32 %1, 4
  br i1 %2, label %3, label %4

3:                                                ; preds = %0
  tail call void (i32, ptr, ...) @sched_log_var(i32 noundef 5, ptr noundef nonnull @.str.76) #19
  br label %4

4:                                                ; preds = %0, %3
  %5 = tail call i64 @time(ptr noundef null) #19
  store i64 %5, ptr getelementptr inbounds nuw (i8, ptr @slurmctld_config, i64 328), align 8
  %6 = tail call i32 @pthread_cond_signal(ptr noundef nonnull @shutdown_cond) #19
  %.not = icmp eq i32 %6, 0
  br i1 %.not, label %10, label %7

7:                                                ; preds = %4
  %8 = tail call ptr @__errno_location() #21
  store i32 %6, ptr %8, align 4
  %9 = tail call i32 (ptr, ...) @error(ptr noundef nonnull @.str.58, ptr noundef nonnull @.str.59, i32 noundef 2932, ptr noundef nonnull @__func__.slurmctld_shutdown) #19
  br label %10

10:                                               ; preds = %7, %4
  %11 = tail call i64 @pthread_self() #21
  %12 = tail call i32 @pthread_kill(i64 noundef %11, i32 noundef 10) #19
  ret i32 0
}